target datalayout = "e-m:e-p270:32:32-p271:32:32-p272:64:64-i64:64-i128:128-f80:128-n8:16:32:64-S128"
target triple = "x86_64-pc-linux-gnu"

%struct.AVFilterContext = type { ptr, ptr, ptr, ptr, ptr, i32, ptr, ptr, i32, ptr, ptr, i32, i32, ptr, ptr, ptr, ptr, i32, ptr, i32, i32 }
%struct.AudioFFTDeNoiseContext = type { ptr, i32, i64, i64, float, float, i32, ptr, float, i32, i32, i32, i32, float, i32, float, float, i32, i32, i32, i32, float, i32, i32, i32, i32, i32, i32, i32, [15 x i32], ptr, ptr, ptr, ptr, ptr, ptr, double, double, double, [17 x i32], i32, [25 x double], [5 x double], [75 x double], [75 x double] }
%struct.DeNoiseChannel = type { [15 x double], [15 x double], [15 x double], ptr, ptr, ptr, ptr, ptr, ptr, ptr, ptr, ptr, ptr, ptr, ptr, ptr, ptr, ptr, ptr, ptr, ptr, ptr, ptr, [15 x double], [15 x double], [15 x double], [15 x double], double, double, double, double, double, double, double, double, double }

; Function Attrs: cold nounwind optsize uwtable
define internal void @uninit(ptr noundef %0) #0 {
  %2 = alloca ptr, align 8
  %3 = alloca ptr, align 8
  %4 = alloca i32, align 4
  %5 = alloca ptr, align 8
  store ptr %0, ptr %2, align 8, !tbaa !4
  call void @llvm.lifetime.start.p0(i64 8, ptr %3) #12
  %6 = load ptr, ptr %2, align 8, !tbaa !4
  %7 = getelementptr inbounds nuw %struct.AVFilterContext, ptr %6, i32 0, i32 9
  %8 = load ptr, ptr %7, align 8, !tbaa !9
  store ptr %8, ptr %3, align 8, !tbaa !22
  %9 = load ptr, ptr %3, align 8, !tbaa !22
  %10 = getelementptr inbounds nuw %struct.AudioFFTDeNoiseContext, ptr %9, i32 0, i32 31
  call void @av_freep(ptr noundef %10)
  %11 = load ptr, ptr %3, align 8, !tbaa !22
  %12 = getelementptr inbounds nuw %struct.AudioFFTDeNoiseContext, ptr %11, i32 0, i32 30
  call void @av_freep(ptr noundef %12)
  %13 = load ptr, ptr %3, align 8, !tbaa !22
  %14 = getelementptr inbounds nuw %struct.AudioFFTDeNoiseContext, ptr %13, i32 0, i32 32
  call void @av_freep(ptr noundef %14)
  %15 = load ptr, ptr %3, align 8, !tbaa !22
  %16 = getelementptr inbounds nuw %struct.AudioFFTDeNoiseContext, ptr %15, i32 0, i32 33
  call void @av_freep(ptr noundef %16)
  %17 = load ptr, ptr %3, align 8, !tbaa !22
  %18 = getelementptr inbounds nuw %struct.AudioFFTDeNoiseContext, ptr %17, i32 0, i32 35
  call void @av_frame_free(ptr noundef %18)
  %19 = load ptr, ptr %3, align 8, !tbaa !22
  %20 = getelementptr inbounds nuw %struct.AudioFFTDeNoiseContext, ptr %19, i32 0, i32 34
  %21 = load ptr, ptr %20, align 8, !tbaa !24
  %22 = icmp ne ptr %21, null
  br i1 %22, label %23, label %80

23:                                               ; preds = %1
  call void @llvm.lifetime.start.p0(i64 4, ptr %4) #12
  store i32 0, ptr %4, align 4, !tbaa !32
  br label %24

24:                                               ; preds = %74, %23
  %25 = load i32, ptr %4, align 4, !tbaa !32
  %26 = load ptr, ptr %3, align 8, !tbaa !22
  %27 = getelementptr inbounds nuw %struct.AudioFFTDeNoiseContext, ptr %26, i32 0, i32 17
  %28 = load i32, ptr %27, align 4, !tbaa !33
  %29 = icmp slt i32 %25, %28
  br i1 %29, label %31, label %30

30:                                               ; preds = %24
  call void @llvm.lifetime.end.p0(i64 4, ptr %4) #12
  br label %77

31:                                               ; preds = %24
  call void @llvm.lifetime.start.p0(i64 8, ptr %5) #12
  %32 = load ptr, ptr %3, align 8, !tbaa !22
  %33 = getelementptr inbounds nuw %struct.AudioFFTDeNoiseContext, ptr %32, i32 0, i32 34
  %34 = load ptr, ptr %33, align 8, !tbaa !24
  %35 = load i32, ptr %4, align 4, !tbaa !32
  %36 = sext i32 %35 to i64
  %37 = getelementptr inbounds %struct.DeNoiseChannel, ptr %34, i64 %36
  store ptr %37, ptr %5, align 8, !tbaa !34
  %38 = load ptr, ptr %5, align 8, !tbaa !34
  %39 = getelementptr inbounds nuw %struct.DeNoiseChannel, ptr %38, i32 0, i32 3
  call void @av_freep(ptr noundef %39)
  %40 = load ptr, ptr %5, align 8, !tbaa !34
  %41 = getelementptr inbounds nuw %struct.DeNoiseChannel, ptr %40, i32 0, i32 4
  call void @av_freep(ptr noundef %41)
  %42 = load ptr, ptr %5, align 8, !tbaa !34
  %43 = getelementptr inbounds nuw %struct.DeNoiseChannel, ptr %42, i32 0, i32 5
  call void @av_freep(ptr noundef %43)
  %44 = load ptr, ptr %5, align 8, !tbaa !34
  %45 = getelementptr inbounds nuw %struct.DeNoiseChannel, ptr %44, i32 0, i32 6
  call void @av_freep(ptr noundef %45)
  %46 = load ptr, ptr %5, align 8, !tbaa !34
  %47 = getelementptr inbounds nuw %struct.DeNoiseChannel, ptr %46, i32 0, i32 7
  call void @av_freep(ptr noundef %47)
  %48 = load ptr, ptr %5, align 8, !tbaa !34
  %49 = getelementptr inbounds nuw %struct.DeNoiseChannel, ptr %48, i32 0, i32 8
  call void @av_freep(ptr noundef %49)
  %50 = load ptr, ptr %5, align 8, !tbaa !34
  %51 = getelementptr inbounds nuw %struct.DeNoiseChannel, ptr %50, i32 0, i32 9
  call void @av_freep(ptr noundef %51)
  %52 = load ptr, ptr %5, align 8, !tbaa !34
  %53 = getelementptr inbounds nuw %struct.DeNoiseChannel, ptr %52, i32 0, i32 10
  call void @av_freep(ptr noundef %53)
  %54 = load ptr, ptr %5, align 8, !tbaa !34
  %55 = getelementptr inbounds nuw %struct.DeNoiseChannel, ptr %54, i32 0, i32 11
  call void @av_freep(ptr noundef %55)
  %56 = load ptr, ptr %5, align 8, !tbaa !34
  %57 = getelementptr inbounds nuw %struct.DeNoiseChannel, ptr %56, i32 0, i32 12
  call void @av_freep(ptr noundef %57)
  %58 = load ptr, ptr %5, align 8, !tbaa !34
  %59 = getelementptr inbounds nuw %struct.DeNoiseChannel, ptr %58, i32 0, i32 13
  call void @av_freep(ptr noundef %59)
  %60 = load ptr, ptr %5, align 8, !tbaa !34
  %61 = getelementptr inbounds nuw %struct.DeNoiseChannel, ptr %60, i32 0, i32 14
  call void @av_freep(ptr noundef %61)
  %62 = load ptr, ptr %5, align 8, !tbaa !34
  %63 = getelementptr inbounds nuw %struct.DeNoiseChannel, ptr %62, i32 0, i32 15
  call void @av_freep(ptr noundef %63)
  %64 = load ptr, ptr %5, align 8, !tbaa !34
  %65 = getelementptr inbounds nuw %struct.DeNoiseChannel, ptr %64, i32 0, i32 16
  call void @av_freep(ptr noundef %65)
  %66 = load ptr, ptr %5, align 8, !tbaa !34
  %67 = getelementptr inbounds nuw %struct.DeNoiseChannel, ptr %66, i32 0, i32 17
  call void @av_freep(ptr noundef %67)
  %68 = load ptr, ptr %5, align 8, !tbaa !34
  %69 = getelementptr inbounds nuw %struct.DeNoiseChannel, ptr %68, i32 0, i32 18
  call void @av_freep(ptr noundef %69)
  %70 = load ptr, ptr %5, align 8, !tbaa !34
  %71 = getelementptr inbounds nuw %struct.DeNoiseChannel, ptr %70, i32 0, i32 19
  call void @av_tx_uninit(ptr noundef %71)
  %72 = load ptr, ptr %5, align 8, !tbaa !34
  %73 = getelementptr inbounds nuw %struct.DeNoiseChannel, ptr %72, i32 0, i32 20
  call void @av_tx_uninit(ptr noundef %73)
  call void @llvm.lifetime.end.p0(i64 8, ptr %5) #12
  br label %74

74:                                               ; preds = %31
  %75 = load i32, ptr %4, align 4, !tbaa !32
  %76 = add nsw i32 %75, 1
  store i32 %76, ptr %4, align 4, !tbaa !32
  br label %24, !llvm.loop !35

77:                                               ; preds = %30
  %78 = load ptr, ptr %3, align 8, !tbaa !22
  %79 = getelementptr inbounds nuw %struct.AudioFFTDeNoiseContext, ptr %78, i32 0, i32 34
  call void @av_freep(ptr noundef %79)
  br label %80

80:                                               ; preds = %77, %1
  call void @llvm.lifetime.end.p0(i64 8, ptr %3) #12
  ret void
}