; Function Attrs: cold nounwind optsize uwtable
define internal void @uninit(ptr noundef readonly captures(none) %0) #0 {
  %2 = getelementptr inbounds nuw i8, ptr %0, i64 72
  %3 = load ptr, ptr %2, align 8, !tbaa !4
  %4 = getelementptr inbounds nuw i8, ptr %3, i64 208
  tail call void @av_freep(ptr noundef nonnull %4) #14
  %5 = getelementptr inbounds nuw i8, ptr %3, i64 200
  tail call void @av_freep(ptr noundef nonnull %5) #14
  %6 = getelementptr inbounds nuw i8, ptr %3, i64 216
  tail call void @av_freep(ptr noundef nonnull %6) #14
  %7 = getelementptr inbounds nuw i8, ptr %3, i64 224
  tail call void @av_freep(ptr noundef nonnull %7) #14
  %8 = getelementptr inbounds nuw i8, ptr %3, i64 240
  tail call void @av_frame_free(ptr noundef nonnull %8) #14
  %9 = getelementptr inbounds nuw i8, ptr %3, i64 232
  %10 = load ptr, ptr %9, align 8, !tbaa !20
  %.not = icmp eq ptr %10, null
  br i1 %.not, label %37, label %.preheader

.preheader:                                       ; preds = %1
  %11 = getelementptr inbounds nuw i8, ptr %3, i64 92
  %12 = load i32, ptr %11, align 4, !tbaa !28
  %13 = icmp sgt i32 %12, 0
  br i1 %13, label %.lr.ph, label %._crit_edge

._crit_edge:                                      ; preds = %.lr.ph, %.preheader
  tail call void @av_freep(ptr noundef nonnull %9) #14
  br label %37

.lr.ph:                                           ; preds = %.preheader, %.lr.ph
  %indvars.iv = phi i64 [ %indvars.iv.next, %.lr.ph ], [ 0, %.preheader ]
  %14 = load ptr, ptr %9, align 8, !tbaa !20
  %15 = getelementptr inbounds nuw %struct.DeNoiseChannel, ptr %14, i64 %indvars.iv
  %16 = getelementptr inbounds nuw i8, ptr %15, i64 360
  tail call void @av_freep(ptr noundef nonnull %16) #14
  %17 = getelementptr inbounds nuw i8, ptr %15, i64 368
  tail call void @av_freep(ptr noundef nonnull %17) #14
  %18 = getelementptr inbounds nuw i8, ptr %15, i64 376
  tail call void @av_freep(ptr noundef nonnull %18) #14
  %19 = getelementptr inbounds nuw i8, ptr %15, i64 384
  tail call void @av_freep(ptr noundef nonnull %19) #14
  %20 = getelementptr inbounds nuw i8, ptr %15, i64 392
  tail call void @av_freep(ptr noundef nonnull %20) #14
  %21 = getelementptr inbounds nuw i8, ptr %15, i64 400
  tail call void @av_freep(ptr noundef nonnull %21) #14
  %22 = getelementptr inbounds nuw i8, ptr %15, i64 408
  tail call void @av_freep(ptr noundef nonnull %22) #14
  %23 = getelementptr inbounds nuw i8, ptr %15, i64 416
  tail call void @av_freep(ptr noundef nonnull %23) #14
  %24 = getelementptr inbounds nuw i8, ptr %15, i64 424
  tail call void @av_freep(ptr noundef nonnull %24) #14
  %25 = getelementptr inbounds nuw i8, ptr %15, i64 432
  tail call void @av_freep(ptr noundef nonnull %25) #14
  %26 = getelementptr inbounds nuw i8, ptr %15, i64 440
  tail call void @av_freep(ptr noundef nonnull %26) #14
  %27 = getelementptr inbounds nuw i8, ptr %15, i64 448
  tail call void @av_freep(ptr noundef nonnull %27) #14
  %28 = getelementptr inbounds nuw i8, ptr %15, i64 456
  tail call void @av_freep(ptr noundef nonnull %28) #14
  %29 = getelementptr inbounds nuw i8, ptr %15, i64 464
  tail call void @av_freep(ptr noundef nonnull %29) #14
  %30 = getelementptr inbounds nuw i8, ptr %15, i64 472
  tail call void @av_freep(ptr noundef nonnull %30) #14
  %31 = getelementptr inbounds nuw i8, ptr %15, i64 480
  tail call void @av_freep(ptr noundef nonnull %31) #14
  %32 = getelementptr inbounds nuw i8, ptr %15, i64 488
  tail call void @av_tx_uninit(ptr noundef nonnull %32) #14
  %33 = getelementptr inbounds nuw i8, ptr %15, i64 496
  tail call void @av_tx_uninit(ptr noundef nonnull %33) #14
  %indvars.iv.next = add nuw nsw i64 %indvars.iv, 1
  %34 = load i32, ptr %11, align 4, !tbaa !28
  %35 = sext i32 %34 to i64
  %36 = icmp slt i64 %indvars.iv.next, %35
  br i1 %36, label %.lr.ph, label %._crit_edge, !llvm.loop !29

37:                                               ; preds = %._crit_edge, %1
  ret void
}